target datalayout = "e-m:e-p270:32:32-p271:32:32-p272:64:64-i64:64-i128:128-f80:128-n8:16:32:64-S128"
target triple = "x86_64-pc-linux-gnu"

@h5tools_nCols = global i32 80, align 4
@rawerrorstream = external global ptr, align 8
@rawoutstream = external global ptr, align 8
@.str.8 = private unnamed_addr constant [2 x i8] c" \00", align 1
@.str.9 = private unnamed_addr constant [52 x i8] c"error: the indentation exceeds the number of cols.\0A\00", align 1

; Function Attrs: nounwind uwtable
define void @indentation(i32 noundef %0) #0 {
  %2 = alloca i32, align 4
  store i32 %0, ptr %2, align 4
  %3 = load i32, ptr %2, align 4
  %4 = load i32, ptr @h5tools_nCols, align 4
  %5 = icmp ult i32 %3, %4
  br i1 %5, label %6, label %19

6:                                                ; preds = %1
  br label %7

7:                                                ; preds = %17, %6
  %8 = load i32, ptr %2, align 4
  %9 = add i32 %8, -1
  store i32 %9, ptr %2, align 4
  %10 = icmp ugt i32 %8, 0
  br i1 %10, label %11, label %18

11:                                               ; preds = %7
  %12 = load ptr, ptr @rawoutstream, align 8
  %13 = icmp ne ptr %12, null
  br i1 %13, label %14, label %17

14:                                               ; preds = %11
  %15 = load ptr, ptr @rawoutstream, align 8
  %16 = call i32 (ptr, ptr, ...) @fprintf(ptr noundef %15, ptr noundef @.str.8) #12
  br label %17

17:                                               ; preds = %14, %11
  br label %7

18:                                               ; preds = %7
  br label %22

19:                                               ; preds = %1
  %20 = load ptr, ptr @rawerrorstream, align 8
  %21 = call i32 (ptr, ptr, ...) @fprintf(ptr noundef %20, ptr noundef @.str.9) #12
  call void @exit(i32 noundef 1) #18
  unreachable

22:                                               ; preds = %18
  ret void
}