; Function Attrs: nofree nounwind uwtable
define void @indentation(i32 noundef %0) local_unnamed_addr #0 {
  %2 = load i32, ptr @h5tools_nCols, align 4
  %3 = icmp ult i32 %0, %2
  br i1 %3, label %.preheader, label %11

.preheader:                                       ; preds = %1
  %.not5 = icmp eq i32 %0, 0
  %4 = load ptr, ptr @rawoutstream, align 8
  %5 = icmp eq ptr %4, null
  %or.cond = select i1 %.not5, i1 true, i1 %5
  br i1 %or.cond, label %._crit_edge, label %.lr.ph.split

.lr.ph.split:                                     ; preds = %.preheader, %9
  %6 = phi ptr [ %10, %9 ], [ %4, %.preheader ]
  %.in = phi i32 [ %7, %9 ], [ %0, %.preheader ]
  %7 = add i32 %.in, -1
  %.not4 = icmp eq ptr %6, null
  br i1 %.not4, label %9, label %8

8:                                                ; preds = %.lr.ph.split
  %fputc = tail call i32 @fputc(i32 32, ptr nonnull %6)
  %.pre = load ptr, ptr @rawoutstream, align 8
  br label %9

9:                                                ; preds = %8, %.lr.ph.split
  %10 = phi ptr [ %.pre, %8 ], [ null, %.lr.ph.split ]
  %.not = icmp eq i32 %7, 0
  br i1 %.not, label %._crit_edge, label %.lr.ph.split, !llvm.loop !4

11:                                               ; preds = %1
  %12 = load ptr, ptr @rawerrorstream, align 8
  %13 = tail call i64 @fwrite(ptr nonnull @.str.9, i64 51, i64 1, ptr %12)
  tail call void @exit(i32 noundef 1) #30
  unreachable

._crit_edge:                                      ; preds = %9, %.preheader
  ret void
}